target datalayout = "e-m:e-p270:32:32-p271:32:32-p272:64:64-i64:64-i128:128-f80:128-n8:16:32:64-S128"
target triple = "x86_64-pc-linux-gnu"

%struct.pollfd = type { i32, i16, i16 }

@.str.5 = private unnamed_addr constant [27 x i8] c"Timeout waiting for socket\00", align 1
@.str.6 = private unnamed_addr constant [11 x i8] c"poll(): %m\00", align 1

; Function Attrs: nounwind uwtable
define dso_local i32 @wait_fd_readable(i32 noundef %0, i32 noundef %1) #0 {
  %3 = alloca i32, align 4
  %4 = alloca i32, align 4
  %5 = alloca i32, align 4
  %6 = alloca %struct.pollfd, align 4
  %7 = alloca i64, align 8
  %8 = alloca i32, align 4
  %9 = alloca i32, align 4
  %10 = alloca i32, align 4
  store i32 %0, ptr %4, align 4
  store i32 %1, ptr %5, align 4
  call void @llvm.lifetime.start.p0(i64 8, ptr %6) #10
  call void @llvm.lifetime.start.p0(i64 8, ptr %7) #10
  call void @llvm.lifetime.start.p0(i64 4, ptr %8) #10
  call void @llvm.lifetime.start.p0(i64 4, ptr %9) #10
  %11 = call i64 @time(ptr noundef null) #10
  store i64 %11, ptr %7, align 8
  %12 = load i32, ptr %5, align 4
  store i32 %12, ptr %9, align 4
  %13 = load i32, ptr %4, align 4
  %14 = getelementptr inbounds nuw %struct.pollfd, ptr %6, i32 0, i32 0
  store i32 %13, ptr %14, align 4
  %15 = getelementptr inbounds nuw %struct.pollfd, ptr %6, i32 0, i32 1
  store i16 1, ptr %15, align 4
  %16 = getelementptr inbounds nuw %struct.pollfd, ptr %6, i32 0, i32 2
  store i16 0, ptr %16, align 2
  br label %17

17:                                               ; preds = %53, %2
  br label %18

18:                                               ; preds = %17
  %19 = load i32, ptr %9, align 4
  %20 = mul nsw i32 %19, 1000
  %21 = call i32 @poll(ptr noundef %6, i64 noundef 1, i32 noundef %20)
  store i32 %21, ptr %8, align 4
  %22 = load i32, ptr %8, align 4
  %23 = icmp sgt i32 %22, 0
  br i1 %23, label %24, label %32

24:                                               ; preds = %18
  %25 = getelementptr inbounds nuw %struct.pollfd, ptr %6, i32 0, i32 2
  %26 = load i16, ptr %25, align 2
  %27 = sext i16 %26 to i32
  %28 = and i32 %27, 1
  %29 = icmp ne i32 %28, 0
  br i1 %29, label %30, label %31

30:                                               ; preds = %24
  store i32 0, ptr %3, align 4
  store i32 1, ptr %10, align 4
  br label %54

31:                                               ; preds = %24
  store i32 -1, ptr %3, align 4
  store i32 1, ptr %10, align 4
  br label %54

32:                                               ; preds = %18
  %33 = load i32, ptr %8, align 4
  %34 = icmp eq i32 %33, 0
  br i1 %34, label %35, label %37

35:                                               ; preds = %32
  %36 = call i32 (ptr, ...) @error(ptr noundef @.str.5)
  store i32 -1, ptr %3, align 4
  store i32 1, ptr %10, align 4
  br label %54

37:                                               ; preds = %32
  %38 = call ptr @__errno_location() #12
  %39 = load i32, ptr %38, align 4
  %40 = icmp ne i32 %39, 4
  br i1 %40, label %41, label %43

41:                                               ; preds = %37
  %42 = call i32 (ptr, ...) @error(ptr noundef @.str.6)
  store i32 -1, ptr %3, align 4
  store i32 1, ptr %10, align 4
  br label %54

43:                                               ; preds = %37
  %44 = load i32, ptr %5, align 4
  %45 = sext i32 %44 to i64
  %46 = call i64 @time(ptr noundef null) #10
  %47 = load i64, ptr %7, align 8
  %48 = sub nsw i64 %46, %47
  %49 = sub nsw i64 %45, %48
  %50 = trunc i64 %49 to i32
  store i32 %50, ptr %9, align 4
  br label %51

51:                                               ; preds = %43
  br label %52

52:                                               ; preds = %51
  br label %53

53:                                               ; preds = %52
  br label %17, !llvm.loop !15

54:                                               ; preds = %41, %35, %31, %30
  call void @llvm.lifetime.end.p0(i64 4, ptr %9) #10
  call void @llvm.lifetime.end.p0(i64 4, ptr %8) #10
  call void @llvm.lifetime.end.p0(i64 8, ptr %7) #10
  call void @llvm.lifetime.end.p0(i64 8, ptr %6) #10
  %55 = load i32, ptr %3, align 4
  ret i32 %55
}