; Function Attrs: nounwind uwtable
define dso_local range(i32 -1, 1) i32 @wait_fd_readable(i32 noundef %0, i32 noundef %1) local_unnamed_addr #0 {
  %3 = alloca %struct.pollfd, align 4
  call void @llvm.lifetime.start.p0(i64 8, ptr nonnull %3) #10
  %4 = tail call i64 @time(ptr noundef null) #10
  store i32 %0, ptr %3, align 4
  %5 = getelementptr inbounds nuw i8, ptr %3, i64 4
  store i16 1, ptr %5, align 4
  %6 = getelementptr inbounds nuw i8, ptr %3, i64 6
  store i16 0, ptr %6, align 2
  %7 = mul nsw i32 %1, 1000
  %8 = call i32 @poll(ptr noundef nonnull %3, i64 noundef 1, i32 noundef %7) #10
  %9 = icmp sgt i32 %8, 0
  br i1 %9, label %._crit_edge, label %.lr.ph

._crit_edge:                                      ; preds = %21, %2
  %10 = load i16, ptr %6, align 2
  %11 = and i16 %10, 1
  %sext = add nsw i16 %11, -1
  %. = sext i16 %sext to i32
  br label %28

.lr.ph:                                           ; preds = %2, %21
  %12 = phi i32 [ %26, %21 ], [ %8, %2 ]
  %13 = icmp eq i32 %12, 0
  br i1 %13, label %14, label %16

14:                                               ; preds = %.lr.ph
  %15 = call i32 (ptr, ...) @error(ptr noundef nonnull @.str.5) #10
  br label %28

16:                                               ; preds = %.lr.ph
  %17 = tail call ptr @__errno_location() #11
  %18 = load i32, ptr %17, align 4
  %.not = icmp eq i32 %18, 4
  br i1 %.not, label %21, label %19

19:                                               ; preds = %16
  %20 = call i32 (ptr, ...) @error(ptr noundef nonnull @.str.6) #10
  br label %28

21:                                               ; preds = %16
  %22 = call i64 @time(ptr noundef null) #10
  %.neg = sub i64 %4, %22
  %23 = trunc i64 %.neg to i32
  %24 = add i32 %1, %23
  %25 = mul nsw i32 %24, 1000
  %26 = call i32 @poll(ptr noundef nonnull %3, i64 noundef 1, i32 noundef %25) #10
  %27 = icmp sgt i32 %26, 0
  br i1 %27, label %._crit_edge, label %.lr.ph, !llvm.loop !13

28:                                               ; preds = %._crit_edge, %19, %14
  %.08 = phi i32 [ -1, %14 ], [ -1, %19 ], [ %., %._crit_edge ]
  call void @llvm.lifetime.end.p0(i64 8, ptr nonnull %3) #10
  ret i32 %.08
}